target datalayout = "e-m:e-p270:32:32-p271:32:32-p272:64:64-i64:64-i128:128-f80:128-n8:16:32:64-S128"
target triple = "x86_64-pc-linux-gnu"

%struct.dump_opt_t = type { i32, i32, i32, i32, i32, i32, i32, i32, i32, i32, i32, i32, i32, i32, i32, i32, i32 }

@dump_opts = external global %struct.dump_opt_t, align 4
@sort_by = external global i32, align 4
@sort_order = external global i32, align 4
@.str = private unnamed_addr constant [37 x i8] c"error getting attribute information\0A\00", align 1

; Function Attrs: nounwind uwtable
define dso_local void @attr_iteration(i64 noundef %0, i32 noundef %1) #0 {
  %3 = alloca i64, align 8
  %4 = alloca i32, align 4
  store i64 %0, ptr %3, align 8, !tbaa !4
  store i32 %1, ptr %4, align 4, !tbaa !11
  %5 = load i32, ptr getelementptr inbounds nuw (%struct.dump_opt_t, ptr @dump_opts, i32 0, i32 14), align 4, !tbaa !47
  %6 = icmp ne i32 %5, 0
  br i1 %6, label %7, label %30

7:                                                ; preds = %2
  %8 = load i32, ptr @sort_by, align 4, !tbaa !11
  %9 = icmp eq i32 %8, 1
  br i1 %9, label %10, label %22

10:                                               ; preds = %7
  %11 = load i32, ptr %4, align 4, !tbaa !11
  %12 = and i32 %11, 1
  %13 = icmp ne i32 %12, 0
  br i1 %13, label %14, label %22

14:                                               ; preds = %10
  %15 = load i64, ptr %3, align 8, !tbaa !4
  %16 = load i32, ptr @sort_by, align 4, !tbaa !11
  %17 = load i32, ptr @sort_order, align 4, !tbaa !11
  %18 = call i32 @H5Aiterate2(i64 noundef %15, i32 noundef %16, i32 noundef %17, ptr noundef null, ptr noundef @dump_attr_cb, ptr noundef null)
  %19 = icmp slt i32 %18, 0
  br i1 %19, label %20, label %21

20:                                               ; preds = %14
  call void (ptr, ...) @error_msg(ptr noundef @.str)
  call void @h5tools_setstatus(i32 noundef 1)
  br label %21

21:                                               ; preds = %20, %14
  br label %29

22:                                               ; preds = %10, %7
  %23 = load i64, ptr %3, align 8, !tbaa !4
  %24 = load i32, ptr @sort_order, align 4, !tbaa !11
  %25 = call i32 @H5Aiterate2(i64 noundef %23, i32 noundef 0, i32 noundef %24, ptr noundef null, ptr noundef @dump_attr_cb, ptr noundef null)
  %26 = icmp slt i32 %25, 0
  br i1 %26, label %27, label %28

27:                                               ; preds = %22
  call void (ptr, ...) @error_msg(ptr noundef @.str)
  call void @h5tools_setstatus(i32 noundef 1)
  br label %28

28:                                               ; preds = %27, %22
  br label %29

29:                                               ; preds = %28, %21
  br label %30

30:                                               ; preds = %29, %2
  ret void
}