; Function Attrs: nounwind uwtable
define dso_local void @attr_iteration(i64 noundef %0, i32 noundef %1) local_unnamed_addr #0 {
  %3 = load i32, ptr getelementptr inbounds nuw (i8, ptr @dump_opts, i64 56), align 4, !tbaa !44
  %.not = icmp eq i32 %3, 0
  br i1 %.not, label %15, label %4

4:                                                ; preds = %2
  %5 = load i32, ptr @sort_by, align 4, !tbaa !4
  %6 = icmp ne i32 %5, 1
  %7 = and i32 %1, 1
  %.not3 = icmp eq i32 %7, 0
  %or.cond = or i1 %.not3, %6
  %8 = load i32, ptr @sort_order, align 4, !tbaa !4
  br i1 %or.cond, label %12, label %9

9:                                                ; preds = %4
  %10 = tail call i32 @H5Aiterate2(i64 noundef %0, i32 noundef 1, i32 noundef %8, ptr noundef null, ptr noundef nonnull @dump_attr_cb, ptr noundef null) #15
  %11 = icmp slt i32 %10, 0
  br i1 %11, label %.sink.split, label %15

12:                                               ; preds = %4
  %13 = tail call i32 @H5Aiterate2(i64 noundef %0, i32 noundef 0, i32 noundef %8, ptr noundef null, ptr noundef nonnull @dump_attr_cb, ptr noundef null) #15
  %14 = icmp slt i32 %13, 0
  br i1 %14, label %.sink.split, label %15

.sink.split:                                      ; preds = %12, %9
  tail call void (ptr, ...) @error_msg(ptr noundef nonnull @.str) #15
  tail call void @h5tools_setstatus(i32 noundef 1) #15
  br label %15

15:                                               ; preds = %.sink.split, %9, %12, %2
  ret void
}